target datalayout = "e-m:e-p270:32:32-p271:32:32-p272:64:64-i64:64-i128:128-f80:128-n8:16:32:64-S128"
target triple = "x86_64-pc-linux-gnu"

%class.LibRaw = type { ptr, %struct.libraw_data_t, ptr, %struct.libraw_internal_data_t, [2048 x %struct.decode], ptr, ptr, [10 x %struct.tiff_ifd_t], %class.libraw_memmgr, %struct.libraw_callbacks_t, { i64, i64 }, { i64, i64 }, { i64, i64 }, ptr, ptr, ptr, i64, ptr, ptr, ptr, ptr }
%struct.libraw_data_t = type { ptr, %struct.libraw_image_sizes_t, %struct.libraw_iparams_t, %struct.libraw_lensinfo_t, %struct.libraw_makernotes_t, %struct.libraw_shootinginfo_t, %struct.libraw_output_params_t, %struct.libraw_raw_unpack_params_t, i32, i32, %struct.libraw_colordata_t, %struct.libraw_imgother_t, %struct.libraw_thumbnail_t, %struct.libraw_thumbnail_list_t, %struct.libraw_rawdata_t, ptr }
%struct.libraw_image_sizes_t = type { i16, i16, i16, i16, i16, i16, i16, i16, i32, double, i32, [8 x [4 x i32]], i16, [2 x %struct.libraw_raw_inset_crop_t] }
%struct.libraw_raw_inset_crop_t = type { i16, i16, i16, i16 }
%struct.libraw_iparams_t = type { [4 x i8], [64 x i8], [64 x i8], [64 x i8], [64 x i8], [64 x i8], i32, i32, i32, i32, i32, i32, [6 x [6 x i8]], [6 x [6 x i8]], [5 x i8], i32, ptr }
%struct.libraw_lensinfo_t = type { float, float, float, float, float, [128 x i8], [128 x i8], [128 x i8], [128 x i8], i16, %struct.libraw_nikonlens_t, %struct.libraw_dnglens_t, %struct.libraw_makernotes_lens_t }
%struct.libraw_nikonlens_t = type { float, i8, i8, i8, i8 }
%struct.libraw_dnglens_t = type { float, float, float, float }
%struct.libraw_makernotes_lens_t = type { i64, [128 x i8], i16, i16, i64, i16, i16, [64 x i8], i16, [16 x i8], [16 x i8], float, float, float, float, float, float, float, float, float, float, float, float, float, float, float, i64, [128 x i8], i64, [128 x i8], i64, [128 x i8], i16, float }
%struct.libraw_makernotes_t = type { %struct.libraw_canon_makernotes_t, %struct.libraw_nikon_makernotes_t, %struct.libraw_hasselblad_makernotes_t, %struct.libraw_fuji_info_t, %struct.libraw_olympus_makernotes_t, %struct.libraw_sony_info_t, %struct.libraw_kodak_makernotes_t, %struct.libraw_panasonic_makernotes_t, %struct.libraw_pentax_makernotes_t, %struct.libraw_p1_makernotes_t, %struct.libraw_ricoh_makernotes_t, %struct.libraw_samsung_makernotes_t, %struct.libraw_metadata_common_t }
%struct.libraw_canon_makernotes_t = type { i32, i32, i32, i32, [4 x i32], i32, [4 x i32], i16, i16, i8, i16, i16, i16, i16, i16, i16, i16, i16, i16, i16, i16, i16, i16, i32, float, i16, i16, i16, i32, i16, i32, i32, i16, i32, %struct.libraw_area_t, %struct.libraw_area_t, %struct.libraw_area_t, %struct.libraw_area_t, %struct.libraw_area_t, [2 x i16] }
%struct.libraw_area_t = type { i16, i16, i16, i16 }
%struct.libraw_nikon_makernotes_t = type { double, i16, i16, [7 x i8], i8, i8, [13 x i8], [20 x i8], [4 x i8], [4 x i8], [4 x i8], i8, i8, i8, i8, i8, [2 x i8], i8, i8, i8, i8, i8, [4 x i8], [4 x i8], i8, i16, i32, i32, i32, i32, [4 x double], i8, i8, i8, i32, i32, i32, i8, [4 x i16], i16, %struct.libraw_sensor_highspeed_crop_t, i16, i16, i16, i32, [20 x i8], [20 x i8], i32, i16, double, double, double }
%struct.libraw_sensor_highspeed_crop_t = type { i16, i16, i16, i16 }
%struct.libraw_hasselblad_makernotes_t = type { i32, double, [8 x i8], [64 x i8], [64 x i8], i32, i32, i32, i32, [32 x i8], [64 x i8], i32, [2 x i32], [2 x i32], [4 x [3 x double]] }
%struct.libraw_fuji_info_t = type { float, i16, i16, i16, i16, i16, i16, i16, i16, [33 x i8], [33 x i8], float, i16, i16, [2 x i16], i16, i32, i32, i16, [3 x i16], i16, i16, i16, i16, i16, i32, i16, [13 x i8], [5 x i8], [5 x i8], i32, i16, i32, i16, [9 x i16], [32 x i32], i32, i32, i32, [2 x float], i32 }
%struct.libraw_olympus_makernotes_t = type { [6 x i8], i16, [2 x i32], [5 x i16], i16, [2 x i16], i16, i16, [64 x i32], [5 x double], i16, i8, [3 x i16], [3 x i32], i16, i16, i16, i16, double, [4 x i16], [2 x i32], i8, i32, i16, i16 }
%struct.libraw_sony_info_t = type { i16, i8, i8, i32, i8, i32, i8, i8, i16, [2 x i16], i8, i8, i16, [10 x i8], i8, i8, [4 x i16], i16, i8, i8, i8, i16, i32, i16, [2 x i16], i16, i16, i16, i16, i16, i16, i16, i32, float, i16, i32, i32, i16, [20 x i8], i32, i16, i32, i8, i8, i16, i16, i16, i16, i16, i16, i16, i16, i16, i32, i16, [16 x i8], float }
%struct.libraw_kodak_makernotes_t = type { i16, i16, i16, i16, i16, i16, [3 x [3 x float]], [3 x [3 x float]], [3 x [3 x float]], [3 x [3 x float]], [3 x [3 x float]], [3 x [3 x float]], i16, i16, i16, i16, float, float }
%struct.libraw_panasonic_makernotes_t = type { i16, i16, [8 x float], i32, float, [3 x i32], i16, i16, i32, i32 }
%struct.libraw_pentax_makernotes_t = type { [4 x i8], [2 x i16], [2 x i16], i16, i32, i32, i16, i16, i8, i8, i16 }
%struct.libraw_p1_makernotes_t = type { [64 x i8], [64 x i8], [256 x i8], [64 x i8] }
%struct.libraw_ricoh_makernotes_t = type { i16, [2 x i32], [2 x i32], i16, i32, i32, i32, i32, i16, i16, i16, i16, i16, i16, double, double }
%struct.libraw_samsung_makernotes_t = type { [4 x i32], [4 x i32], [2 x i32], [11 x i32], double, i32, [32 x i8] }
%struct.libraw_metadata_common_t = type { float, float, float, float, float, float, float, float, float, float, float, float, float, float, float, float, i16, [128 x i8], float, [4 x %struct.libraw_afinfo_item_t], i32 }
%struct.libraw_afinfo_item_t = type { i32, i16, i32, i32, ptr }
%struct.libraw_shootinginfo_t = type { i16, i16, i16, i16, i16, i16, i16, [64 x i8], [64 x i8] }
%struct.libraw_output_params_t = type { [4 x i32], [4 x i32], [4 x double], [6 x double], [4 x float], float, float, i32, i32, i32, i32, i32, i32, i32, ptr, ptr, ptr, ptr, i32, i32, i32, i32, i32, i32, [4 x i32], i32, i32, float, float, i32, i32, i32, i32, i32, i32, i32, i32, float, float, i32, i32 }
%struct.libraw_raw_unpack_params_t = type { i32, i32, i32, i32, i32, i32, i32, float, [5 x i8], ptr }
%struct.libraw_colordata_t = type { [65536 x i16], [4104 x i32], i32, i32, i32, [4 x i64], float, float, [8 x [8 x i16]], [4 x float], [4 x float], [3 x [4 x float]], [3 x [4 x float]], [3 x [4 x float]], [4 x [3 x float]], %struct.ph1_t, float, float, [64 x i8], [64 x i8], [64 x i8], [64 x i8], [17 x i8], [64 x i8], ptr, i32, [8 x i32], [2 x %struct.libraw_dng_color_t], %struct.libraw_dng_levels_t, [256 x [4 x i32]], [64 x [5 x float]], i32, [2 x %struct.libraw_P1_color_t], i32, i32 }
%struct.ph1_t = type { i32, i32, i32, i32, i32, i32, i32, i32, float }
%struct.libraw_dng_color_t = type { i32, i16, [4 x [4 x float]], [4 x [3 x float]], [3 x [4 x float]] }
%struct.libraw_dng_levels_t = type { i32, [4104 x i32], i32, [4104 x float], float, [4 x i32], [4 x i16], [4 x float], i32, [4 x float], [4 x float], float, float }
%struct.libraw_P1_color_t = type { [9 x float] }
%struct.libraw_imgother_t = type { float, float, float, float, i64, i32, [32 x i32], %struct.libraw_gps_info_t, [512 x i8], [64 x i8], [4 x float] }
%struct.libraw_gps_info_t = type { [3 x float], [3 x float], [3 x float], float, i8, i8, i8, i8, i8 }
%struct.libraw_thumbnail_t = type { i32, i16, i16, i32, i32, ptr }
%struct.libraw_thumbnail_list_t = type { i32, [8 x %struct.libraw_thumbnail_item_t] }
%struct.libraw_thumbnail_item_t = type { i32, i16, i16, i16, i32, i32, i64 }
%struct.libraw_rawdata_t = type { ptr, ptr, ptr, ptr, ptr, ptr, ptr, ptr, ptr, %struct.libraw_iparams_t, %struct.libraw_image_sizes_t, %struct.libraw_internal_output_params_t, %struct.libraw_colordata_t }
%struct.libraw_internal_output_params_t = type { i32, i32, i32, i16, i16 }
%struct.libraw_internal_data_t = type { %struct.internal_data_t, %struct.libraw_internal_output_params_t, %struct.output_data_t, %struct.identify_data_t, %struct.unpacker_data_t }
%struct.internal_data_t = type { ptr, ptr, i32, ptr, i64, i64, [4 x i32] }
%struct.output_data_t = type { ptr, ptr }
%struct.identify_data_t = type { i32, i64, i64, i32, i32, i32 }
%struct.unpacker_data_t = type { i16, [4 x i16], [3 x i16], i32, i64, i64, i64, i64, i64, i64, i32, i32, i32, i32, i32, i32, i32, i32, i32, i32, i32, i32, i32, i32, i32, i32, i32, i64, i32, i32, i32, i32, i32, i32, i32, i32, i32, %struct.pana8_tags_t, [16 x %struct.crx_data_header_t], i32, i32, i16, i16, i32, i32, i32, i32, i32, i32, i32, [20 x i32], i16 }
%struct.pana8_tags_t = type { [6 x i32], [6 x i16], i16, [4 x i16], [17 x i16], [17 x i16], [17 x i16], i16, i16, [5 x i64], [5 x i16], [5 x i32], [5 x i16], [5 x i16] }
%struct.crx_data_header_t = type { i32, i32, i32, i32, i32, i32, i32, i32, i32, i32, i32, i32, i32, i32, i32, i64, i32, ptr, i32, i32, i32, ptr, i32, ptr }
%struct.decode = type { [2 x ptr], i32 }
%struct.tiff_ifd_t = type { i32, i32, i32, i32, i32, i32, i32, i32, i32, i32, i32, i32, i32, i32, i32, ptr, i32, ptr, i32, i32, i32, i32, i32, i32, i32, float, i64, i64, i32, [2 x %struct.libraw_dng_color_t], %struct.libraw_dng_levels_t, i32 }
%class.libraw_memmgr = type <{ ptr, i32, [4 x i8] }>
%struct.libraw_callbacks_t = type { ptr, ptr, ptr, ptr, ptr, ptr, ptr, ptr, ptr, ptr, ptr, ptr, ptr, ptr, ptr, ptr, ptr }

; Function Attrs: mustprogress uwtable
define noundef i32 @_ZN6LibRaw10parse_jpegEi(ptr noundef nonnull align 8 dereferenceable(767680) %0, i32 noundef %1) #0 align 2 {
  %3 = alloca i32, align 4
  %4 = alloca ptr, align 8
  %5 = alloca i32, align 4
  %6 = alloca i32, align 4
  %7 = alloca i32, align 4
  %8 = alloca i32, align 4
  %9 = alloca i32, align 4
  %10 = alloca i32, align 4
  store ptr %0, ptr %4, align 8, !tbaa !6
  store i32 %1, ptr %5, align 4, !tbaa !75
  %11 = load ptr, ptr %4, align 8
  call void @llvm.lifetime.start.p0(i64 4, ptr %6) #10
  call void @llvm.lifetime.start.p0(i64 4, ptr %7) #10
  call void @llvm.lifetime.start.p0(i64 4, ptr %8) #10
  call void @llvm.lifetime.start.p0(i64 4, ptr %9) #10
  %12 = getelementptr inbounds nuw %class.LibRaw, ptr %11, i32 0, i32 3
  %13 = getelementptr inbounds nuw %struct.libraw_internal_data_t, ptr %12, i32 0, i32 0
  %14 = getelementptr inbounds nuw %struct.internal_data_t, ptr %13, i32 0, i32 0
  %15 = load ptr, ptr %14, align 8, !tbaa !11
  %16 = load i32, ptr %5, align 4, !tbaa !75
  %17 = sext i32 %16 to i64
  %18 = load ptr, ptr %15, align 8, !tbaa !73
  %19 = getelementptr inbounds ptr, ptr %18, i64 4
  %20 = load ptr, ptr %19, align 8
  %21 = call noundef i32 %20(ptr noundef nonnull align 8 dereferenceable(8) %15, i64 noundef %17, i32 noundef 0)
  %22 = getelementptr inbounds nuw %class.LibRaw, ptr %11, i32 0, i32 3
  %23 = getelementptr inbounds nuw %struct.libraw_internal_data_t, ptr %22, i32 0, i32 0
  %24 = getelementptr inbounds nuw %struct.internal_data_t, ptr %23, i32 0, i32 0
  %25 = load ptr, ptr %24, align 8, !tbaa !11
  %26 = load ptr, ptr %25, align 8, !tbaa !73
  %27 = getelementptr inbounds ptr, ptr %26, i64 7
  %28 = load ptr, ptr %27, align 8
  %29 = call noundef i32 %28(ptr noundef nonnull align 8 dereferenceable(8) %25)
  %30 = icmp ne i32 %29, 255
  br i1 %30, label %41, label %31

31:                                               ; preds = %2
  %32 = getelementptr inbounds nuw %class.LibRaw, ptr %11, i32 0, i32 3
  %33 = getelementptr inbounds nuw %struct.libraw_internal_data_t, ptr %32, i32 0, i32 0
  %34 = getelementptr inbounds nuw %struct.internal_data_t, ptr %33, i32 0, i32 0
  %35 = load ptr, ptr %34, align 8, !tbaa !11
  %36 = load ptr, ptr %35, align 8, !tbaa !73
  %37 = getelementptr inbounds ptr, ptr %36, i64 7
  %38 = load ptr, ptr %37, align 8
  %39 = call noundef i32 %38(ptr noundef nonnull align 8 dereferenceable(8) %35)
  %40 = icmp ne i32 %39, 216
  br i1 %40, label %41, label %42

41:                                               ; preds = %31, %2
  store i32 0, ptr %3, align 4
  store i32 1, ptr %10, align 4
  br label %160

42:                                               ; preds = %31
  br label %43

43:                                               ; preds = %146, %42
  %44 = getelementptr inbounds nuw %class.LibRaw, ptr %11, i32 0, i32 3
  %45 = getelementptr inbounds nuw %struct.libraw_internal_data_t, ptr %44, i32 0, i32 0
  %46 = getelementptr inbounds nuw %struct.internal_data_t, ptr %45, i32 0, i32 0
  %47 = load ptr, ptr %46, align 8, !tbaa !11
  %48 = load ptr, ptr %47, align 8, !tbaa !73
  %49 = getelementptr inbounds ptr, ptr %48, i64 7
  %50 = load ptr, ptr %49, align 8
  %51 = call noundef i32 %50(ptr noundef nonnull align 8 dereferenceable(8) %47)
  %52 = icmp eq i32 %51, 255
  br i1 %52, label %53, label %63

53:                                               ; preds = %43
  %54 = getelementptr inbounds nuw %class.LibRaw, ptr %11, i32 0, i32 3
  %55 = getelementptr inbounds nuw %struct.libraw_internal_data_t, ptr %54, i32 0, i32 0
  %56 = getelementptr inbounds nuw %struct.internal_data_t, ptr %55, i32 0, i32 0
  %57 = load ptr, ptr %56, align 8, !tbaa !11
  %58 = load ptr, ptr %57, align 8, !tbaa !73
  %59 = getelementptr inbounds ptr, ptr %58, i64 7
  %60 = load ptr, ptr %59, align 8
  %61 = call noundef i32 %60(ptr noundef nonnull align 8 dereferenceable(8) %57)
  store i32 %61, ptr %9, align 4, !tbaa !75
  %62 = icmp ne i32 %61, 218
  br label %63

63:                                               ; preds = %53, %43
  %64 = phi i1 [ false, %43 ], [ %62, %53 ]
  br i1 %64, label %65, label %159

65:                                               ; preds = %63
  %66 = getelementptr inbounds nuw %class.LibRaw, ptr %11, i32 0, i32 3
  %67 = getelementptr inbounds nuw %struct.libraw_internal_data_t, ptr %66, i32 0, i32 4
  %68 = getelementptr inbounds nuw %struct.unpacker_data_t, ptr %67, i32 0, i32 0
  store i16 19789, ptr %68, align 8, !tbaa !86
  %69 = call noundef zeroext i16 @_ZN6LibRaw4get2Ev(ptr noundef nonnull align 8 dereferenceable(767680) %11)
  %70 = zext i16 %69 to i32
  %71 = sub nsw i32 %70, 2
  store i32 %71, ptr %6, align 4, !tbaa !75
  %72 = getelementptr inbounds nuw %class.LibRaw, ptr %11, i32 0, i32 3
  %73 = getelementptr inbounds nuw %struct.libraw_internal_data_t, ptr %72, i32 0, i32 0
  %74 = getelementptr inbounds nuw %struct.internal_data_t, ptr %73, i32 0, i32 0
  %75 = load ptr, ptr %74, align 8, !tbaa !11
  %76 = load ptr, ptr %75, align 8, !tbaa !73
  %77 = getelementptr inbounds ptr, ptr %76, i64 5
  %78 = load ptr, ptr %77, align 8
  %79 = call noundef i64 %78(ptr noundef nonnull align 8 dereferenceable(8) %75)
  %80 = trunc i64 %79 to i32
  store i32 %80, ptr %7, align 4, !tbaa !75
  %81 = load i32, ptr %9, align 4, !tbaa !75
  %82 = icmp eq i32 %81, 192
  br i1 %82, label %89, label %83

83:                                               ; preds = %65
  %84 = load i32, ptr %9, align 4, !tbaa !75
  %85 = icmp eq i32 %84, 195
  br i1 %85, label %89, label %86

86:                                               ; preds = %83
  %87 = load i32, ptr %9, align 4, !tbaa !75
  %88 = icmp eq i32 %87, 201
  br i1 %88, label %89, label %106

89:                                               ; preds = %86, %83, %65
  %90 = getelementptr inbounds nuw %class.LibRaw, ptr %11, i32 0, i32 3
  %91 = getelementptr inbounds nuw %struct.libraw_internal_data_t, ptr %90, i32 0, i32 0
  %92 = getelementptr inbounds nuw %struct.internal_data_t, ptr %91, i32 0, i32 0
  %93 = load ptr, ptr %92, align 8, !tbaa !11
  %94 = load ptr, ptr %93, align 8, !tbaa !73
  %95 = getelementptr inbounds ptr, ptr %94, i64 7
  %96 = load ptr, ptr %95, align 8
  %97 = call noundef i32 %96(ptr noundef nonnull align 8 dereferenceable(8) %93)
  %98 = call noundef zeroext i16 @_ZN6LibRaw4get2Ev(ptr noundef nonnull align 8 dereferenceable(767680) %11)
  %99 = getelementptr inbounds nuw %class.LibRaw, ptr %11, i32 0, i32 1
  %100 = getelementptr inbounds nuw %struct.libraw_data_t, ptr %99, i32 0, i32 1
  %101 = getelementptr inbounds nuw %struct.libraw_image_sizes_t, ptr %100, i32 0, i32 0
  store i16 %98, ptr %101, align 8, !tbaa !90
  %102 = call noundef zeroext i16 @_ZN6LibRaw4get2Ev(ptr noundef nonnull align 8 dereferenceable(767680) %11)
  %103 = getelementptr inbounds nuw %class.LibRaw, ptr %11, i32 0, i32 1
  %104 = getelementptr inbounds nuw %struct.libraw_data_t, ptr %103, i32 0, i32 1
  %105 = getelementptr inbounds nuw %struct.libraw_image_sizes_t, ptr %104, i32 0, i32 1
  store i16 %102, ptr %105, align 2, !tbaa !89
  br label %106

106:                                              ; preds = %89, %86
  %107 = call noundef zeroext i16 @_ZN6LibRaw4get2Ev(ptr noundef nonnull align 8 dereferenceable(767680) %11)
  %108 = getelementptr inbounds nuw %class.LibRaw, ptr %11, i32 0, i32 3
  %109 = getelementptr inbounds nuw %struct.libraw_internal_data_t, ptr %108, i32 0, i32 4
  %110 = getelementptr inbounds nuw %struct.unpacker_data_t, ptr %109, i32 0, i32 0
  store i16 %107, ptr %110, align 8, !tbaa !86
  %111 = call noundef i32 @_ZN6LibRaw4get4Ev(ptr noundef nonnull align 8 dereferenceable(767680) %11)
  store i32 %111, ptr %8, align 4, !tbaa !75
  %112 = call noundef i32 @_ZN6LibRaw4get4Ev(ptr noundef nonnull align 8 dereferenceable(767680) %11)
  %113 = icmp eq i32 %112, 1212498256
  br i1 %113, label %114, label %140

114:                                              ; preds = %106
  %115 = load i32, ptr %7, align 4, !tbaa !75
  %116 = load i32, ptr %8, align 4, !tbaa !75
  %117 = add nsw i32 %115, %116
  %118 = icmp sge i32 %117, 0
  br i1 %118, label %119, label %140

119:                                              ; preds = %114
  %120 = load i32, ptr %7, align 4, !tbaa !75
  %121 = load i32, ptr %8, align 4, !tbaa !75
  %122 = add nsw i32 %120, %121
  %123 = sext i32 %122 to i64
  %124 = getelementptr inbounds nuw %class.LibRaw, ptr %11, i32 0, i32 3
  %125 = getelementptr inbounds nuw %struct.libraw_internal_data_t, ptr %124, i32 0, i32 0
  %126 = getelementptr inbounds nuw %struct.internal_data_t, ptr %125, i32 0, i32 0
  %127 = load ptr, ptr %126, align 8, !tbaa !11
  %128 = load ptr, ptr %127, align 8, !tbaa !73
  %129 = getelementptr inbounds ptr, ptr %128, i64 6
  %130 = load ptr, ptr %129, align 8
  %131 = call noundef i64 %130(ptr noundef nonnull align 8 dereferenceable(8) %127)
  %132 = icmp sle i64 %123, %131
  br i1 %132, label %133, label %140

133:                                              ; preds = %119
  %134 = load i32, ptr %7, align 4, !tbaa !75
  %135 = load i32, ptr %8, align 4, !tbaa !75
  %136 = add nsw i32 %134, %135
  %137 = load i32, ptr %6, align 4, !tbaa !75
  %138 = load i32, ptr %8, align 4, !tbaa !75
  %139 = sub nsw i32 %137, %138
  call void @_ZN6LibRaw10parse_ciffEiii(ptr noundef nonnull align 8 dereferenceable(767680) %11, i32 noundef %136, i32 noundef %139, i32 noundef 0)
  br label %140

140:                                              ; preds = %133, %119, %114, %106
  %141 = load i32, ptr %7, align 4, !tbaa !75
  %142 = add nsw i32 %141, 6
  %143 = call noundef i32 @_ZN6LibRaw10parse_tiffEi(ptr noundef nonnull align 8 dereferenceable(767680) %11, i32 noundef %142)
  %144 = icmp ne i32 %143, 0
  br i1 %144, label %145, label %146

145:                                              ; preds = %140
  call void @_ZN6LibRaw10apply_tiffEv(ptr noundef nonnull align 8 dereferenceable(767680) %11)
  br label %146

146:                                              ; preds = %145, %140
  %147 = getelementptr inbounds nuw %class.LibRaw, ptr %11, i32 0, i32 3
  %148 = getelementptr inbounds nuw %struct.libraw_internal_data_t, ptr %147, i32 0, i32 0
  %149 = getelementptr inbounds nuw %struct.internal_data_t, ptr %148, i32 0, i32 0
  %150 = load ptr, ptr %149, align 8, !tbaa !11
  %151 = load i32, ptr %7, align 4, !tbaa !75
  %152 = load i32, ptr %6, align 4, !tbaa !75
  %153 = add nsw i32 %151, %152
  %154 = sext i32 %153 to i64
  %155 = load ptr, ptr %150, align 8, !tbaa !73
  %156 = getelementptr inbounds ptr, ptr %155, i64 4
  %157 = load ptr, ptr %156, align 8
  %158 = call noundef i32 %157(ptr noundef nonnull align 8 dereferenceable(8) %150, i64 noundef %154, i32 noundef 0)
  br label %43, !llvm.loop !100

159:                                              ; preds = %63
  store i32 1, ptr %3, align 4
  store i32 1, ptr %10, align 4
  br label %160

160:                                              ; preds = %159, %41
  call void @llvm.lifetime.end.p0(i64 4, ptr %9) #10
  call void @llvm.lifetime.end.p0(i64 4, ptr %8) #10
  call void @llvm.lifetime.end.p0(i64 4, ptr %7) #10
  call void @llvm.lifetime.end.p0(i64 4, ptr %6) #10
  %161 = load i32, ptr %3, align 4
  ret i32 %161
}