; Function Attrs: mustprogress uwtable
define noundef range(i32 0, 2) i32 @_ZN6LibRaw10parse_jpegEi(ptr noundef nonnull align 8 dereferenceable(767680) %0, i32 noundef %1) local_unnamed_addr #0 align 2 {
  %3 = getelementptr inbounds nuw i8, ptr %0, i64 381416
  %4 = load ptr, ptr %3, align 8, !tbaa !6
  %5 = sext i32 %1 to i64
  %6 = load ptr, ptr %4, align 8, !tbaa !71
  %7 = getelementptr inbounds nuw i8, ptr %6, i64 32
  %8 = load ptr, ptr %7, align 8
  %9 = tail call noundef i32 %8(ptr noundef nonnull align 8 dereferenceable(8) %4, i64 noundef %5, i32 noundef 0)
  %10 = load ptr, ptr %3, align 8, !tbaa !6
  %11 = load ptr, ptr %10, align 8, !tbaa !71
  %12 = getelementptr inbounds nuw i8, ptr %11, i64 56
  %13 = load ptr, ptr %12, align 8
  %14 = tail call noundef i32 %13(ptr noundef nonnull align 8 dereferenceable(8) %10)
  %.not = icmp eq i32 %14, 255
  br i1 %.not, label %15, label %.critedge

15:                                               ; preds = %2
  %16 = load ptr, ptr %3, align 8, !tbaa !6
  %17 = load ptr, ptr %16, align 8, !tbaa !71
  %18 = getelementptr inbounds nuw i8, ptr %17, i64 56
  %19 = load ptr, ptr %18, align 8
  %20 = tail call noundef i32 %19(ptr noundef nonnull align 8 dereferenceable(8) %16)
  %.not21 = icmp eq i32 %20, 216
  br i1 %.not21, label %.preheader, label %.critedge

.preheader:                                       ; preds = %15
  %21 = load ptr, ptr %3, align 8, !tbaa !6
  %22 = load ptr, ptr %21, align 8, !tbaa !71
  %23 = getelementptr inbounds nuw i8, ptr %22, i64 56
  %24 = load ptr, ptr %23, align 8
  %25 = tail call noundef i32 %24(ptr noundef nonnull align 8 dereferenceable(8) %21)
  %26 = icmp eq i32 %25, 255
  br i1 %26, label %.lr.ph, label %.critedge

.lr.ph:                                           ; preds = %.preheader
  %27 = getelementptr inbounds nuw i8, ptr %0, i64 381552
  %28 = getelementptr inbounds nuw i8, ptr %0, i64 16
  %29 = getelementptr inbounds nuw i8, ptr %0, i64 18
  br label %30

30:                                               ; preds = %.lr.ph, %75
  %31 = load ptr, ptr %3, align 8, !tbaa !6
  %32 = load ptr, ptr %31, align 8, !tbaa !71
  %33 = getelementptr inbounds nuw i8, ptr %32, i64 56
  %34 = load ptr, ptr %33, align 8
  %35 = tail call noundef i32 %34(ptr noundef nonnull align 8 dereferenceable(8) %31)
  %.not22 = icmp eq i32 %35, 218
  br i1 %.not22, label %.critedge, label %36

36:                                               ; preds = %30
  store i16 19789, ptr %27, align 8, !tbaa !83
  %37 = tail call noundef zeroext i16 @_ZN6LibRaw4get2Ev(ptr noundef nonnull align 8 dereferenceable(767680) %0)
  %38 = zext i16 %37 to i32
  %39 = add nsw i32 %38, -2
  %40 = load ptr, ptr %3, align 8, !tbaa !6
  %41 = load ptr, ptr %40, align 8, !tbaa !71
  %42 = getelementptr inbounds nuw i8, ptr %41, i64 40
  %43 = load ptr, ptr %42, align 8
  %44 = tail call noundef i64 %43(ptr noundef nonnull align 8 dereferenceable(8) %40)
  %45 = trunc i64 %44 to i32
  switch i32 %35, label %54 [
    i32 201, label %46
    i32 195, label %46
    i32 192, label %46
  ]

46:                                               ; preds = %36, %36, %36
  %47 = load ptr, ptr %3, align 8, !tbaa !6
  %48 = load ptr, ptr %47, align 8, !tbaa !71
  %49 = getelementptr inbounds nuw i8, ptr %48, i64 56
  %50 = load ptr, ptr %49, align 8
  %51 = tail call noundef i32 %50(ptr noundef nonnull align 8 dereferenceable(8) %47)
  %52 = tail call noundef zeroext i16 @_ZN6LibRaw4get2Ev(ptr noundef nonnull align 8 dereferenceable(767680) %0)
  store i16 %52, ptr %28, align 8, !tbaa !87
  %53 = tail call noundef zeroext i16 @_ZN6LibRaw4get2Ev(ptr noundef nonnull align 8 dereferenceable(767680) %0)
  store i16 %53, ptr %29, align 2, !tbaa !86
  br label %54

54:                                               ; preds = %36, %46
  %55 = tail call noundef zeroext i16 @_ZN6LibRaw4get2Ev(ptr noundef nonnull align 8 dereferenceable(767680) %0)
  store i16 %55, ptr %27, align 8, !tbaa !83
  %56 = tail call noundef i32 @_ZN6LibRaw4get4Ev(ptr noundef nonnull align 8 dereferenceable(767680) %0)
  %57 = tail call noundef i32 @_ZN6LibRaw4get4Ev(ptr noundef nonnull align 8 dereferenceable(767680) %0)
  %58 = icmp eq i32 %57, 1212498256
  br i1 %58, label %59, label %71

59:                                               ; preds = %54
  %60 = add nsw i32 %56, %45
  %61 = icmp sgt i32 %60, -1
  br i1 %61, label %62, label %71

62:                                               ; preds = %59
  %63 = zext nneg i32 %60 to i64
  %64 = load ptr, ptr %3, align 8, !tbaa !6
  %65 = load ptr, ptr %64, align 8, !tbaa !71
  %66 = getelementptr inbounds nuw i8, ptr %65, i64 48
  %67 = load ptr, ptr %66, align 8
  %68 = tail call noundef i64 %67(ptr noundef nonnull align 8 dereferenceable(8) %64)
  %.not23 = icmp slt i64 %68, %63
  br i1 %.not23, label %71, label %69

69:                                               ; preds = %62
  %70 = sub nsw i32 %39, %56
  tail call void @_ZN6LibRaw10parse_ciffEiii(ptr noundef nonnull align 8 dereferenceable(767680) %0, i32 noundef %60, i32 noundef %70, i32 noundef 0)
  br label %71

71:                                               ; preds = %69, %62, %59, %54
  %72 = add nsw i32 %45, 6
  %73 = tail call noundef i32 @_ZN6LibRaw10parse_tiffEi(ptr noundef nonnull align 8 dereferenceable(767680) %0, i32 noundef %72)
  %.not24 = icmp eq i32 %73, 0
  br i1 %.not24, label %75, label %74

74:                                               ; preds = %71
  tail call void @_ZN6LibRaw10apply_tiffEv(ptr noundef nonnull align 8 dereferenceable(767680) %0)
  br label %75

75:                                               ; preds = %74, %71
  %76 = load ptr, ptr %3, align 8, !tbaa !6
  %77 = add nsw i32 %39, %45
  %78 = sext i32 %77 to i64
  %79 = load ptr, ptr %76, align 8, !tbaa !71
  %80 = getelementptr inbounds nuw i8, ptr %79, i64 32
  %81 = load ptr, ptr %80, align 8
  %82 = tail call noundef i32 %81(ptr noundef nonnull align 8 dereferenceable(8) %76, i64 noundef %78, i32 noundef 0)
  %83 = load ptr, ptr %3, align 8, !tbaa !6
  %84 = load ptr, ptr %83, align 8, !tbaa !71
  %85 = getelementptr inbounds nuw i8, ptr %84, i64 56
  %86 = load ptr, ptr %85, align 8
  %87 = tail call noundef i32 %86(ptr noundef nonnull align 8 dereferenceable(8) %83)
  %88 = icmp eq i32 %87, 255
  br i1 %88, label %30, label %.critedge, !llvm.loop !97

.critedge:                                        ; preds = %75, %30, %.preheader, %2, %15
  %.0 = phi i32 [ 0, %15 ], [ 0, %2 ], [ 1, %.preheader ], [ 1, %30 ], [ 1, %75 ]
  ret i32 %.0
}